; Function Attrs: uwtable
define range(i32 -4, 1) i32 @faiss_ParameterSpace_set_index_parameters(ptr noundef nonnull %0, ptr noundef %1, ptr noundef %2) local_unnamed_addr #6 personality ptr @__gxx_personality_v0 {
  %4 = alloca %"class.std::__exception_ptr::exception_ptr", align 8
  %5 = alloca %"class.std::__exception_ptr::exception_ptr", align 8
  %6 = alloca %"class.std::__exception_ptr::exception_ptr", align 8
  %7 = alloca %"class.std::__exception_ptr::exception_ptr", align 8
  %8 = alloca %"class.std::runtime_error", align 8
  %9 = alloca %"class.std::__exception_ptr::exception_ptr", align 8
  %10 = alloca %"class.std::exception", align 8
  %11 = alloca %"class.std::__exception_ptr::exception_ptr", align 8
  %12 = alloca %"class.faiss::FaissException", align 8
  invoke void @_ZNK5faiss14ParameterSpace20set_index_parametersEPNS_5IndexEPKc(ptr noundef nonnull align 8 dereferenceable(64) %0, ptr noundef %1, ptr noundef %2)
          to label %48 unwind label %13

13:                                               ; preds = %3
  %14 = landingpad { ptr, i32 }
          catch ptr @_ZTIN5faiss14FaissExceptionE
          catch ptr @_ZTISt9exception
          catch ptr null
  %15 = extractvalue { ptr, i32 } %14, 0
  %16 = extractvalue { ptr, i32 } %14, 1
  %17 = tail call i32 @llvm.eh.typeid.for.p0(ptr nonnull @_ZTIN5faiss14FaissExceptionE) #25
  %18 = icmp eq i32 %16, %17
  br i1 %18, label %19, label %27

19:                                               ; preds = %13
  %20 = tail call ptr @__cxa_begin_catch(ptr %15) #25
  call void @llvm.lifetime.start.p0(i64 8, ptr nonnull %11) #25
  invoke void @_ZN5faiss14FaissExceptionC2ERKS0_(ptr noundef nonnull align 8 dereferenceable(40) %12, ptr noundef nonnull align 8 dereferenceable(40) %20)
          to label %21 unwind label %46

21:                                               ; preds = %19
  call void @_ZSt18make_exception_ptrIN5faiss14FaissExceptionEENSt15__exception_ptr13exception_ptrET_(ptr dead_on_unwind nonnull writable sret(%"class.std::__exception_ptr::exception_ptr") align 8 %11, ptr noundef nonnull %12) #25
  %.not.i = icmp eq ptr @_ZTH20faiss_last_exception, null
  br i1 %.not.i, label %_ZTW20faiss_last_exception.exit, label %22

22:                                               ; preds = %21
  call void @_ZTH20faiss_last_exception()
  br label %_ZTW20faiss_last_exception.exit

_ZTW20faiss_last_exception.exit:                  ; preds = %21, %22
  %23 = call noundef align 8 ptr @llvm.threadlocal.address.p0(ptr align 8 @faiss_last_exception)
  call void @llvm.lifetime.start.p0(i64 8, ptr nonnull %6) #25
  %24 = load ptr, ptr %11, align 8, !tbaa !19
  store ptr null, ptr %11, align 8, !tbaa !19
  %25 = load ptr, ptr %23, align 8, !tbaa !19
  store ptr %25, ptr %6, align 8, !tbaa !19
  store ptr %24, ptr %23, align 8, !tbaa !19
  %.not.i.i = icmp eq ptr %25, null
  br i1 %.not.i.i, label %_ZNSt15__exception_ptr13exception_ptraSEOS0_.exit.thread, label %_ZNSt15__exception_ptr13exception_ptraSEOS0_.exit

_ZNSt15__exception_ptr13exception_ptraSEOS0_.exit.thread: ; preds = %_ZTW20faiss_last_exception.exit
  call void @llvm.lifetime.end.p0(i64 8, ptr nonnull %6) #25
  br label %_ZNSt15__exception_ptr13exception_ptrD2Ev.exit

_ZNSt15__exception_ptr13exception_ptraSEOS0_.exit: ; preds = %_ZTW20faiss_last_exception.exit
  call void @_ZNSt15__exception_ptr13exception_ptr10_M_releaseEv(ptr noundef nonnull align 8 dereferenceable(8) %6) #25
  %.pr = load ptr, ptr %11, align 8, !tbaa !19
  call void @llvm.lifetime.end.p0(i64 8, ptr nonnull %6) #25
  %.not.i16 = icmp eq ptr %.pr, null
  br i1 %.not.i16, label %_ZNSt15__exception_ptr13exception_ptrD2Ev.exit, label %26

26:                                               ; preds = %_ZNSt15__exception_ptr13exception_ptraSEOS0_.exit
  call void @_ZNSt15__exception_ptr13exception_ptr10_M_releaseEv(ptr noundef nonnull align 8 dereferenceable(8) %11) #25
  br label %_ZNSt15__exception_ptr13exception_ptrD2Ev.exit

_ZNSt15__exception_ptr13exception_ptrD2Ev.exit:   ; preds = %_ZNSt15__exception_ptr13exception_ptraSEOS0_.exit.thread, %_ZNSt15__exception_ptr13exception_ptraSEOS0_.exit, %26
  call void @_ZN5faiss14FaissExceptionD2Ev(ptr noundef nonnull align 8 dereferenceable(40) %12) #25
  call void @llvm.lifetime.end.p0(i64 8, ptr nonnull %11) #25
  br label %.sink.split

27:                                               ; preds = %13
  %28 = tail call i32 @llvm.eh.typeid.for.p0(ptr nonnull @_ZTISt9exception) #25
  %29 = icmp eq i32 %16, %28
  %30 = tail call ptr @__cxa_begin_catch(ptr %15) #25
  br i1 %29, label %31, label %37

31:                                               ; preds = %27
  call void @llvm.lifetime.start.p0(i64 8, ptr nonnull %9) #25
  store ptr getelementptr inbounds nuw inrange(-16, 24) (i8, ptr @_ZTVSt9exception, i64 16), ptr %10, align 8, !tbaa !21
  call void @_ZSt18make_exception_ptrISt9exceptionENSt15__exception_ptr13exception_ptrET_(ptr dead_on_unwind nonnull writable sret(%"class.std::__exception_ptr::exception_ptr") align 8 %9, ptr noundef nonnull %10) #25
  %.not.i17 = icmp eq ptr @_ZTH20faiss_last_exception, null
  br i1 %.not.i17, label %_ZTW20faiss_last_exception.exit18, label %32

32:                                               ; preds = %31
  call void @_ZTH20faiss_last_exception()
  br label %_ZTW20faiss_last_exception.exit18

_ZTW20faiss_last_exception.exit18:                ; preds = %31, %32
  %33 = call noundef align 8 ptr @llvm.threadlocal.address.p0(ptr align 8 @faiss_last_exception)
  call void @llvm.lifetime.start.p0(i64 8, ptr nonnull %5) #25
  %34 = load ptr, ptr %9, align 8, !tbaa !19
  store ptr null, ptr %9, align 8, !tbaa !19
  %35 = load ptr, ptr %33, align 8, !tbaa !19
  store ptr %35, ptr %5, align 8, !tbaa !19
  store ptr %34, ptr %33, align 8, !tbaa !19
  %.not.i.i19 = icmp eq ptr %35, null
  br i1 %.not.i.i19, label %_ZNSt15__exception_ptr13exception_ptraSEOS0_.exit20.thread, label %_ZNSt15__exception_ptr13exception_ptraSEOS0_.exit20

_ZNSt15__exception_ptr13exception_ptraSEOS0_.exit20.thread: ; preds = %_ZTW20faiss_last_exception.exit18
  call void @llvm.lifetime.end.p0(i64 8, ptr nonnull %5) #25
  br label %_ZNSt15__exception_ptr13exception_ptrD2Ev.exit22

_ZNSt15__exception_ptr13exception_ptraSEOS0_.exit20: ; preds = %_ZTW20faiss_last_exception.exit18
  call void @_ZNSt15__exception_ptr13exception_ptr10_M_releaseEv(ptr noundef nonnull align 8 dereferenceable(8) %5) #25
  %.pr30 = load ptr, ptr %9, align 8, !tbaa !19
  call void @llvm.lifetime.end.p0(i64 8, ptr nonnull %5) #25
  %.not.i21 = icmp eq ptr %.pr30, null
  br i1 %.not.i21, label %_ZNSt15__exception_ptr13exception_ptrD2Ev.exit22, label %36

36:                                               ; preds = %_ZNSt15__exception_ptr13exception_ptraSEOS0_.exit20
  call void @_ZNSt15__exception_ptr13exception_ptr10_M_releaseEv(ptr noundef nonnull align 8 dereferenceable(8) %9) #25
  br label %_ZNSt15__exception_ptr13exception_ptrD2Ev.exit22

_ZNSt15__exception_ptr13exception_ptrD2Ev.exit22: ; preds = %_ZNSt15__exception_ptr13exception_ptraSEOS0_.exit20.thread, %_ZNSt15__exception_ptr13exception_ptraSEOS0_.exit20, %36
  call void @_ZNSt9exceptionD1Ev(ptr noundef nonnull align 8 dereferenceable(8) %10) #25
  call void @llvm.lifetime.end.p0(i64 8, ptr nonnull %9) #25
  br label %.sink.split

37:                                               ; preds = %27
  call void @llvm.lifetime.start.p0(i64 8, ptr nonnull %7) #25
  invoke void @_ZNSt13runtime_errorC1EPKc(ptr noundef nonnull align 8 dereferenceable(16) %8, ptr noundef nonnull @.str)
          to label %38 unwind label %44

38:                                               ; preds = %37
  call void @_ZSt18make_exception_ptrISt13runtime_errorENSt15__exception_ptr13exception_ptrET_(ptr dead_on_unwind nonnull writable sret(%"class.std::__exception_ptr::exception_ptr") align 8 %7, ptr noundef nonnull %8) #25
  %.not.i23 = icmp eq ptr @_ZTH20faiss_last_exception, null
  br i1 %.not.i23, label %_ZTW20faiss_last_exception.exit24, label %39

39:                                               ; preds = %38
  call void @_ZTH20faiss_last_exception()
  br label %_ZTW20faiss_last_exception.exit24

_ZTW20faiss_last_exception.exit24:                ; preds = %38, %39
  %40 = call noundef align 8 ptr @llvm.threadlocal.address.p0(ptr align 8 @faiss_last_exception)
  call void @llvm.lifetime.start.p0(i64 8, ptr nonnull %4) #25
  %41 = load ptr, ptr %7, align 8, !tbaa !19
  store ptr null, ptr %7, align 8, !tbaa !19
  %42 = load ptr, ptr %40, align 8, !tbaa !19
  store ptr %42, ptr %4, align 8, !tbaa !19
  store ptr %41, ptr %40, align 8, !tbaa !19
  %.not.i.i25 = icmp eq ptr %42, null
  br i1 %.not.i.i25, label %_ZNSt15__exception_ptr13exception_ptraSEOS0_.exit26.thread, label %_ZNSt15__exception_ptr13exception_ptraSEOS0_.exit26

_ZNSt15__exception_ptr13exception_ptraSEOS0_.exit26.thread: ; preds = %_ZTW20faiss_last_exception.exit24
  call void @llvm.lifetime.end.p0(i64 8, ptr nonnull %4) #25
  br label %_ZNSt15__exception_ptr13exception_ptrD2Ev.exit28

_ZNSt15__exception_ptr13exception_ptraSEOS0_.exit26: ; preds = %_ZTW20faiss_last_exception.exit24
  call void @_ZNSt15__exception_ptr13exception_ptr10_M_releaseEv(ptr noundef nonnull align 8 dereferenceable(8) %4) #25
  %.pr32 = load ptr, ptr %7, align 8, !tbaa !19
  call void @llvm.lifetime.end.p0(i64 8, ptr nonnull %4) #25
  %.not.i27 = icmp eq ptr %.pr32, null
  br i1 %.not.i27, label %_ZNSt15__exception_ptr13exception_ptrD2Ev.exit28, label %43

43:                                               ; preds = %_ZNSt15__exception_ptr13exception_ptraSEOS0_.exit26
  call void @_ZNSt15__exception_ptr13exception_ptr10_M_releaseEv(ptr noundef nonnull align 8 dereferenceable(8) %7) #25
  br label %_ZNSt15__exception_ptr13exception_ptrD2Ev.exit28

_ZNSt15__exception_ptr13exception_ptrD2Ev.exit28: ; preds = %_ZNSt15__exception_ptr13exception_ptraSEOS0_.exit26.thread, %_ZNSt15__exception_ptr13exception_ptraSEOS0_.exit26, %43
  call void @_ZNSt13runtime_errorD1Ev(ptr noundef nonnull align 8 dereferenceable(16) %8) #25
  call void @llvm.lifetime.end.p0(i64 8, ptr nonnull %7) #25
  br label %.sink.split

44:                                               ; preds = %37
  %45 = landingpad { ptr, i32 }
          cleanup
  call void @llvm.lifetime.end.p0(i64 8, ptr nonnull %7) #25
  invoke void @__cxa_end_catch()
          to label %49 unwind label %50

46:                                               ; preds = %19
  %47 = landingpad { ptr, i32 }
          cleanup
  call void @llvm.lifetime.end.p0(i64 8, ptr nonnull %11) #25
  invoke void @__cxa_end_catch()
          to label %49 unwind label %50

.sink.split:                                      ; preds = %_ZNSt15__exception_ptr13exception_ptrD2Ev.exit, %_ZNSt15__exception_ptr13exception_ptrD2Ev.exit22, %_ZNSt15__exception_ptr13exception_ptrD2Ev.exit28
  %.0.ph = phi i32 [ -1, %_ZNSt15__exception_ptr13exception_ptrD2Ev.exit28 ], [ -4, %_ZNSt15__exception_ptr13exception_ptrD2Ev.exit22 ], [ -2, %_ZNSt15__exception_ptr13exception_ptrD2Ev.exit ]
  call void @__cxa_end_catch()
  br label %48

48:                                               ; preds = %.sink.split, %3
  %.0 = phi i32 [ 0, %3 ], [ %.0.ph, %.sink.split ]
  ret i32 %.0

49:                                               ; preds = %46, %44
  %.pn = phi { ptr, i32 } [ %45, %44 ], [ %47, %46 ]
  resume { ptr, i32 } %.pn

50:                                               ; preds = %46, %44
  %51 = landingpad { ptr, i32 }
          catch ptr null
  %52 = extractvalue { ptr, i32 } %51, 0
  call void @__clang_call_terminate(ptr %52) #26
  unreachable
}